target datalayout = "e-m:e-p270:32:32-p271:32:32-p272:64:64-i64:64-i128:128-f80:128-n8:16:32:64-S128"
target triple = "x86_64-pc-linux-gnu"

%struct.Settings = type { i32, i32, i32, float, i32, i32, i8, i8, i8, i8, i8, i8, i8, i8, i8, i8, i8, i8, i8, i8, i8, i8, i8, i8, i8, i8 }

@_ZL8fileName = internal global ptr @.str.22, align 8
@.str = private unnamed_addr constant [2 x i8] c"w\00", align 1
@.str.1 = private unnamed_addr constant [3 x i8] c"{\0A\00", align 1
@.str.2 = private unnamed_addr constant [22 x i8] c"  \22sampleIndex\22: %d,\0A\00", align 1
@.str.3 = private unnamed_addr constant [21 x i8] c"  \22drawShapes\22: %s,\0A\00", align 1
@.str.4 = private unnamed_addr constant [5 x i8] c"true\00", align 1
@.str.5 = private unnamed_addr constant [6 x i8] c"false\00", align 1
@.str.6 = private unnamed_addr constant [21 x i8] c"  \22drawJoints\22: %s,\0A\00", align 1
@.str.7 = private unnamed_addr constant [20 x i8] c"  \22drawAABBs\22: %s,\0A\00", align 1
@.str.8 = private unnamed_addr constant [28 x i8] c"  \22drawContactPoints\22: %s,\0A\00", align 1
@.str.9 = private unnamed_addr constant [29 x i8] c"  \22drawContactNormals\22: %s,\0A\00", align 1
@.str.10 = private unnamed_addr constant [30 x i8] c"  \22drawContactImpulses\22: %s,\0A\00", align 1
@.str.11 = private unnamed_addr constant [30 x i8] c"  \22drawFrictionImpulse\22: %s,\0A\00", align 1
@.str.12 = private unnamed_addr constant [19 x i8] c"  \22drawMass\22: %s,\0A\00", align 1
@.str.13 = private unnamed_addr constant [23 x i8] c"  \22drawCounters\22: %s,\0A\00", align 1
@.str.14 = private unnamed_addr constant [22 x i8] c"  \22drawProfile\22: %s,\0A\00", align 1
@.str.15 = private unnamed_addr constant [29 x i8] c"  \22enableWarmStarting\22: %s,\0A\00", align 1
@.str.16 = private unnamed_addr constant [27 x i8] c"  \22enableContinuous\22: %s,\0A\00", align 1
@.str.17 = private unnamed_addr constant [21 x i8] c"  \22enableSleep\22: %s\0A\00", align 1
@.str.18 = private unnamed_addr constant [3 x i8] c"}\0A\00", align 1

; Function Attrs: mustprogress uwtable
define dso_local void @_ZN8Settings4SaveEv(ptr noundef nonnull align 4 dereferenceable(44) %0) #0 align 2 {
  %2 = alloca ptr, align 8
  %3 = alloca ptr, align 8
  store ptr %0, ptr %2, align 8, !tbaa !38
  %4 = load ptr, ptr %2, align 8
  call void @llvm.lifetime.start.p0(i64 8, ptr %3) #7
  %5 = load ptr, ptr @_ZL8fileName, align 8, !tbaa !9
  %6 = call noalias ptr @fopen(ptr noundef %5, ptr noundef @.str)
  store ptr %6, ptr %3, align 8, !tbaa !40
  %7 = load ptr, ptr %3, align 8, !tbaa !40
  %8 = call i32 (ptr, ptr, ...) @fprintf(ptr noundef %7, ptr noundef @.str.1) #7
  %9 = load ptr, ptr %3, align 8, !tbaa !40
  %10 = getelementptr inbounds nuw %struct.Settings, ptr %4, i32 0, i32 0
  %11 = load i32, ptr %10, align 4, !tbaa !42
  %12 = call i32 (ptr, ptr, ...) @fprintf(ptr noundef %9, ptr noundef @.str.2, i32 noundef %11) #7
  %13 = load ptr, ptr %3, align 8, !tbaa !40
  %14 = getelementptr inbounds nuw %struct.Settings, ptr %4, i32 0, i32 7
  %15 = load i8, ptr %14, align 1, !tbaa !46, !range !47, !noundef !48
  %16 = trunc i8 %15 to i1
  %17 = select i1 %16, ptr @.str.4, ptr @.str.5
  %18 = call i32 (ptr, ptr, ...) @fprintf(ptr noundef %13, ptr noundef @.str.3, ptr noundef %17) #7
  %19 = load ptr, ptr %3, align 8, !tbaa !40
  %20 = getelementptr inbounds nuw %struct.Settings, ptr %4, i32 0, i32 8
  %21 = load i8, ptr %20, align 2, !tbaa !49, !range !47, !noundef !48
  %22 = trunc i8 %21 to i1
  %23 = select i1 %22, ptr @.str.4, ptr @.str.5
  %24 = call i32 (ptr, ptr, ...) @fprintf(ptr noundef %19, ptr noundef @.str.6, ptr noundef %23) #7
  %25 = load ptr, ptr %3, align 8, !tbaa !40
  %26 = getelementptr inbounds nuw %struct.Settings, ptr %4, i32 0, i32 10
  %27 = load i8, ptr %26, align 4, !tbaa !50, !range !47, !noundef !48
  %28 = trunc i8 %27 to i1
  %29 = select i1 %28, ptr @.str.4, ptr @.str.5
  %30 = call i32 (ptr, ptr, ...) @fprintf(ptr noundef %25, ptr noundef @.str.7, ptr noundef %29) #7
  %31 = load ptr, ptr %3, align 8, !tbaa !40
  %32 = getelementptr inbounds nuw %struct.Settings, ptr %4, i32 0, i32 11
  %33 = load i8, ptr %32, align 1, !tbaa !51, !range !47, !noundef !48
  %34 = trunc i8 %33 to i1
  %35 = select i1 %34, ptr @.str.4, ptr @.str.5
  %36 = call i32 (ptr, ptr, ...) @fprintf(ptr noundef %31, ptr noundef @.str.8, ptr noundef %35) #7
  %37 = load ptr, ptr %3, align 8, !tbaa !40
  %38 = getelementptr inbounds nuw %struct.Settings, ptr %4, i32 0, i32 12
  %39 = load i8, ptr %38, align 2, !tbaa !52, !range !47, !noundef !48
  %40 = trunc i8 %39 to i1
  %41 = select i1 %40, ptr @.str.4, ptr @.str.5
  %42 = call i32 (ptr, ptr, ...) @fprintf(ptr noundef %37, ptr noundef @.str.9, ptr noundef %41) #7
  %43 = load ptr, ptr %3, align 8, !tbaa !40
  %44 = getelementptr inbounds nuw %struct.Settings, ptr %4, i32 0, i32 13
  %45 = load i8, ptr %44, align 1, !tbaa !53, !range !47, !noundef !48
  %46 = trunc i8 %45 to i1
  %47 = select i1 %46, ptr @.str.4, ptr @.str.5
  %48 = call i32 (ptr, ptr, ...) @fprintf(ptr noundef %43, ptr noundef @.str.10, ptr noundef %47) #7
  %49 = load ptr, ptr %3, align 8, !tbaa !40
  %50 = getelementptr inbounds nuw %struct.Settings, ptr %4, i32 0, i32 14
  %51 = load i8, ptr %50, align 4, !tbaa !54, !range !47, !noundef !48
  %52 = trunc i8 %51 to i1
  %53 = select i1 %52, ptr @.str.4, ptr @.str.5
  %54 = call i32 (ptr, ptr, ...) @fprintf(ptr noundef %49, ptr noundef @.str.11, ptr noundef %53) #7
  %55 = load ptr, ptr %3, align 8, !tbaa !40
  %56 = getelementptr inbounds nuw %struct.Settings, ptr %4, i32 0, i32 15
  %57 = load i8, ptr %56, align 1, !tbaa !55, !range !47, !noundef !48
  %58 = trunc i8 %57 to i1
  %59 = select i1 %58, ptr @.str.4, ptr @.str.5
  %60 = call i32 (ptr, ptr, ...) @fprintf(ptr noundef %55, ptr noundef @.str.12, ptr noundef %59) #7
  %61 = load ptr, ptr %3, align 8, !tbaa !40
  %62 = getelementptr inbounds nuw %struct.Settings, ptr %4, i32 0, i32 18
  %63 = load i8, ptr %62, align 4, !tbaa !56, !range !47, !noundef !48
  %64 = trunc i8 %63 to i1
  %65 = select i1 %64, ptr @.str.4, ptr @.str.5
  %66 = call i32 (ptr, ptr, ...) @fprintf(ptr noundef %61, ptr noundef @.str.13, ptr noundef %65) #7
  %67 = load ptr, ptr %3, align 8, !tbaa !40
  %68 = getelementptr inbounds nuw %struct.Settings, ptr %4, i32 0, i32 19
  %69 = load i8, ptr %68, align 1, !tbaa !57, !range !47, !noundef !48
  %70 = trunc i8 %69 to i1
  %71 = select i1 %70, ptr @.str.4, ptr @.str.5
  %72 = call i32 (ptr, ptr, ...) @fprintf(ptr noundef %67, ptr noundef @.str.14, ptr noundef %71) #7
  %73 = load ptr, ptr %3, align 8, !tbaa !40
  %74 = getelementptr inbounds nuw %struct.Settings, ptr %4, i32 0, i32 20
  %75 = load i8, ptr %74, align 2, !tbaa !58, !range !47, !noundef !48
  %76 = trunc i8 %75 to i1
  %77 = select i1 %76, ptr @.str.4, ptr @.str.5
  %78 = call i32 (ptr, ptr, ...) @fprintf(ptr noundef %73, ptr noundef @.str.15, ptr noundef %77) #7
  %79 = load ptr, ptr %3, align 8, !tbaa !40
  %80 = getelementptr inbounds nuw %struct.Settings, ptr %4, i32 0, i32 21
  %81 = load i8, ptr %80, align 1, !tbaa !59, !range !47, !noundef !48
  %82 = trunc i8 %81 to i1
  %83 = select i1 %82, ptr @.str.4, ptr @.str.5
  %84 = call i32 (ptr, ptr, ...) @fprintf(ptr noundef %79, ptr noundef @.str.16, ptr noundef %83) #7
  %85 = load ptr, ptr %3, align 8, !tbaa !40
  %86 = getelementptr inbounds nuw %struct.Settings, ptr %4, i32 0, i32 22
  %87 = load i8, ptr %86, align 4, !tbaa !60, !range !47, !noundef !48
  %88 = trunc i8 %87 to i1
  %89 = select i1 %88, ptr @.str.4, ptr @.str.5
  %90 = call i32 (ptr, ptr, ...) @fprintf(ptr noundef %85, ptr noundef @.str.17, ptr noundef %89) #7
  %91 = load ptr, ptr %3, align 8, !tbaa !40
  %92 = call i32 (ptr, ptr, ...) @fprintf(ptr noundef %91, ptr noundef @.str.18) #7
  %93 = load ptr, ptr %3, align 8, !tbaa !40
  %94 = call i32 @fclose(ptr noundef %93)
  call void @llvm.lifetime.end.p0(i64 8, ptr %3) #7
  ret void
}