; Function Attrs: mustprogress nofree nounwind uwtable
define dso_local void @_ZN8Settings4SaveEv(ptr noundef nonnull readonly align 4 captures(none) dereferenceable(44) %0) local_unnamed_addr #3 align 2 {
  %2 = tail call noalias ptr @fopen(ptr noundef nonnull @.str.22, ptr noundef nonnull @.str)
  %3 = tail call i64 @fwrite(ptr nonnull @.str.1, i64 2, i64 1, ptr %2)
  %4 = load i32, ptr %0, align 4, !tbaa !27
  %5 = tail call i32 (ptr, ptr, ...) @fprintf(ptr noundef %2, ptr noundef nonnull @.str.2, i32 noundef %4) #12
  %6 = getelementptr inbounds nuw i8, ptr %0, i64 25
  %7 = load i8, ptr %6, align 1, !tbaa !31, !range !32, !noundef !33
  %8 = trunc nuw i8 %7 to i1
  %9 = select i1 %8, ptr @.str.4, ptr @.str.5
  %10 = tail call i32 (ptr, ptr, ...) @fprintf(ptr noundef %2, ptr noundef nonnull @.str.3, ptr noundef nonnull %9) #12
  %11 = getelementptr inbounds nuw i8, ptr %0, i64 26
  %12 = load i8, ptr %11, align 2, !tbaa !34, !range !32, !noundef !33
  %13 = trunc nuw i8 %12 to i1
  %14 = select i1 %13, ptr @.str.4, ptr @.str.5
  %15 = tail call i32 (ptr, ptr, ...) @fprintf(ptr noundef %2, ptr noundef nonnull @.str.6, ptr noundef nonnull %14) #12
  %16 = getelementptr inbounds nuw i8, ptr %0, i64 28
  %17 = load i8, ptr %16, align 4, !tbaa !35, !range !32, !noundef !33
  %18 = trunc nuw i8 %17 to i1
  %19 = select i1 %18, ptr @.str.4, ptr @.str.5
  %20 = tail call i32 (ptr, ptr, ...) @fprintf(ptr noundef %2, ptr noundef nonnull @.str.7, ptr noundef nonnull %19) #12
  %21 = getelementptr inbounds nuw i8, ptr %0, i64 29
  %22 = load i8, ptr %21, align 1, !tbaa !36, !range !32, !noundef !33
  %23 = trunc nuw i8 %22 to i1
  %24 = select i1 %23, ptr @.str.4, ptr @.str.5
  %25 = tail call i32 (ptr, ptr, ...) @fprintf(ptr noundef %2, ptr noundef nonnull @.str.8, ptr noundef nonnull %24) #12
  %26 = getelementptr inbounds nuw i8, ptr %0, i64 30
  %27 = load i8, ptr %26, align 2, !tbaa !37, !range !32, !noundef !33
  %28 = trunc nuw i8 %27 to i1
  %29 = select i1 %28, ptr @.str.4, ptr @.str.5
  %30 = tail call i32 (ptr, ptr, ...) @fprintf(ptr noundef %2, ptr noundef nonnull @.str.9, ptr noundef nonnull %29) #12
  %31 = getelementptr inbounds nuw i8, ptr %0, i64 31
  %32 = load i8, ptr %31, align 1, !tbaa !38, !range !32, !noundef !33
  %33 = trunc nuw i8 %32 to i1
  %34 = select i1 %33, ptr @.str.4, ptr @.str.5
  %35 = tail call i32 (ptr, ptr, ...) @fprintf(ptr noundef %2, ptr noundef nonnull @.str.10, ptr noundef nonnull %34) #12
  %36 = getelementptr inbounds nuw i8, ptr %0, i64 32
  %37 = load i8, ptr %36, align 4, !tbaa !39, !range !32, !noundef !33
  %38 = trunc nuw i8 %37 to i1
  %39 = select i1 %38, ptr @.str.4, ptr @.str.5
  %40 = tail call i32 (ptr, ptr, ...) @fprintf(ptr noundef %2, ptr noundef nonnull @.str.11, ptr noundef nonnull %39) #12
  %41 = getelementptr inbounds nuw i8, ptr %0, i64 33
  %42 = load i8, ptr %41, align 1, !tbaa !40, !range !32, !noundef !33
  %43 = trunc nuw i8 %42 to i1
  %44 = select i1 %43, ptr @.str.4, ptr @.str.5
  %45 = tail call i32 (ptr, ptr, ...) @fprintf(ptr noundef %2, ptr noundef nonnull @.str.12, ptr noundef nonnull %44) #12
  %46 = getelementptr inbounds nuw i8, ptr %0, i64 36
  %47 = load i8, ptr %46, align 4, !tbaa !41, !range !32, !noundef !33
  %48 = trunc nuw i8 %47 to i1
  %49 = select i1 %48, ptr @.str.4, ptr @.str.5
  %50 = tail call i32 (ptr, ptr, ...) @fprintf(ptr noundef %2, ptr noundef nonnull @.str.13, ptr noundef nonnull %49) #12
  %51 = getelementptr inbounds nuw i8, ptr %0, i64 37
  %52 = load i8, ptr %51, align 1, !tbaa !42, !range !32, !noundef !33
  %53 = trunc nuw i8 %52 to i1
  %54 = select i1 %53, ptr @.str.4, ptr @.str.5
  %55 = tail call i32 (ptr, ptr, ...) @fprintf(ptr noundef %2, ptr noundef nonnull @.str.14, ptr noundef nonnull %54) #12
  %56 = getelementptr inbounds nuw i8, ptr %0, i64 38
  %57 = load i8, ptr %56, align 2, !tbaa !43, !range !32, !noundef !33
  %58 = trunc nuw i8 %57 to i1
  %59 = select i1 %58, ptr @.str.4, ptr @.str.5
  %60 = tail call i32 (ptr, ptr, ...) @fprintf(ptr noundef %2, ptr noundef nonnull @.str.15, ptr noundef nonnull %59) #12
  %61 = getelementptr inbounds nuw i8, ptr %0, i64 39
  %62 = load i8, ptr %61, align 1, !tbaa !44, !range !32, !noundef !33
  %63 = trunc nuw i8 %62 to i1
  %64 = select i1 %63, ptr @.str.4, ptr @.str.5
  %65 = tail call i32 (ptr, ptr, ...) @fprintf(ptr noundef %2, ptr noundef nonnull @.str.16, ptr noundef nonnull %64) #12
  %66 = getelementptr inbounds nuw i8, ptr %0, i64 40
  %67 = load i8, ptr %66, align 4, !tbaa !45, !range !32, !noundef !33
  %68 = trunc nuw i8 %67 to i1
  %69 = select i1 %68, ptr @.str.4, ptr @.str.5
  %70 = tail call i32 (ptr, ptr, ...) @fprintf(ptr noundef %2, ptr noundef nonnull @.str.17, ptr noundef nonnull %69) #12
  %71 = tail call i64 @fwrite(ptr nonnull @.str.18, i64 2, i64 1, ptr %2)
  %72 = tail call i32 @fclose(ptr noundef %2)
  ret void
}